; Function Attrs: nofree norecurse nosync nounwind sspstrong memory(read, inaccessiblemem: none) uwtable
define dso_local noundef zeroext i1 @bdrv_has_readonly_bitmaps(ptr noundef readonly captures(none) %bs) local_unnamed_addr #10 {
entry:
  %dirty_bitmaps = getelementptr inbounds nuw i8, ptr %bs, i64 16952
  %bm.03 = load ptr, ptr %dirty_bitmaps, align 8
  %tobool.not4.not = icmp eq ptr %bm.03, null
  br i1 %tobool.not4.not, label %return, label %for.body

for.cond:                                         ; preds = %for.body
  %list = getelementptr inbounds nuw i8, ptr %bm.05, i64 64
  %bm.0 = load ptr, ptr %list, align 8
  %tobool.not.not = icmp eq ptr %bm.0, null
  br i1 %tobool.not.not, label %return, label %for.body, !llvm.loop !11

for.body:                                         ; preds = %entry, %for.cond
  %bm.05 = phi ptr [ %bm.0, %for.cond ], [ %bm.03, %entry ]
  %readonly = getelementptr inbounds nuw i8, ptr %bm.05, i64 56
  %0 = load i8, ptr %readonly, align 8
  %tobool1 = trunc i8 %0 to i1
  br i1 %tobool1, label %return, label %for.cond

return:                                           ; preds = %for.body, %for.cond, %entry
  %tobool.not.lcssa = phi i1 [ false, %entry ], [ %tobool1, %for.cond ], [ %tobool1, %for.body ]
  ret i1 %tobool.not.lcssa
}